   1               		.file	"motor.c"
   2               	__SREG__ = 0x3f
   3               	__SP_H__ = 0x3e
   4               	__SP_L__ = 0x3d
   5               	__CCP__  = 0x34
   6               	__tmp_reg__ = 0
   7               	__zero_reg__ = 1
   8               		.global __do_copy_data
   9               		.global __do_clear_bss
  17               	.Ltext0:
  18               	.global	get_motor_L
  20               	get_motor_L:
  21               	.LFB8:
  22               	.LM1:
  23               	/* prologue: function */
  24               	/* frame size = 0 */
  25               	.LBB78:
  26               	.LBB79:
  27               	.LBB80:
  28               	.LM2:
  29               	/* #APP */
  30               	 ;  50 "c:/winavr-20080610/lib/gcc/../../avr/include/util/atomic.h" 1
  31 0000 F894      		cli
  32               	 ;  0 "" 2
  33               	/* #NOAPP */
  34               	.LBE80:
  35               	.LBE79:
  36               	.LM3:
  37 0002 2091 8800 		lds r18,136
  38 0006 3091 8900 		lds r19,(136)+1
  39               	.LVL0:
  40               	.LBB81:
  41               	.LBB82:
  42               	.LM4:
  43               	/* #APP */
  44               	 ;  56 "c:/winavr-20080610/lib/gcc/../../avr/include/util/atomic.h" 1
  45 000a 7894      		sei
  46               	 ;  0 "" 2
  47               	.LM5:
  48               	/* #NOAPP */
  49               	.LBE82:
  50               	.LBE81:
  51               	.LBE78:
  52               	.LM6:
  53 000c C901      		movw r24,r18
  54               	.LVL1:
  55               	/* epilogue start */
  56 000e 0895      		ret
  57               	.LFE8:
  59               	.global	get_motor_R
  61               	get_motor_R:
  62               	.LFB9:
  63               	.LM7:
  64               	/* prologue: function */
  65               	/* frame size = 0 */
  66               	.LBB83:
  67               	.LBB84:
  68               	.LBB85:
  69               	.LM8:
  70               	/* #APP */
  71               	 ;  50 "c:/winavr-20080610/lib/gcc/../../avr/include/util/atomic.h" 1
  72 0010 F894      		cli
  73               	 ;  0 "" 2
  74               	/* #NOAPP */
  75               	.LBE85:
  76               	.LBE84:
  77               	.LM9:
  78 0012 2091 8A00 		lds r18,138
  79 0016 3091 8B00 		lds r19,(138)+1
  80               	.LVL2:
  81               	.LBB86:
  82               	.LBB87:
  83               	.LM10:
  84               	/* #APP */
  85               	 ;  56 "c:/winavr-20080610/lib/gcc/../../avr/include/util/atomic.h" 1
  86 001a 7894      		sei
  87               	 ;  0 "" 2
  88               	.LM11:
  89               	/* #NOAPP */
  90               	.LBE87:
  91               	.LBE86:
  92               	.LBE83:
  93               	.LM12:
  94 001c C901      		movw r24,r18
  95               	.LVL3:
  96               	/* epilogue start */
  97 001e 0895      		ret
  98               	.LFE9:
 100               	.global	set_motor_L
 102               	set_motor_L:
 103               	.LFB10:
 104               	.LM13:
 105               	.LVL4:
 106               	/* prologue: function */
 107               	/* frame size = 0 */
 108               	.LBB88:
 109               	.LBB89:
 110               	.LBB90:
 111               	.LM14:
 112               	/* #APP */
 113               	 ;  50 "c:/winavr-20080610/lib/gcc/../../avr/include/util/atomic.h" 1
 114 0020 F894      		cli
 115               	 ;  0 "" 2
 116               	/* #NOAPP */
 117               	.LBE90:
 118               	.LBE89:
 119               	.LM15:
 120 0022 9093 8900 		sts (136)+1,r25
 121 0026 8093 8800 		sts 136,r24
 122               	.LBB91:
 123               	.LBB92:
 124               	.LM16:
 125               	/* #APP */
 126               	 ;  56 "c:/winavr-20080610/lib/gcc/../../avr/include/util/atomic.h" 1
 127 002a 7894      		sei
 128               	 ;  0 "" 2
 129               	.LM17:
 130               	/* epilogue start */
 131               	/* #NOAPP */
 132               	.LBE92:
 133               	.LBE91:
 134               	.LBE88:
 135               	.LM18:
 136 002c 0895      		ret
 137               	.LFE10:
 139               	.global	set_motor_R
 141               	set_motor_R:
 142               	.LFB11:
 143               	.LM19:
 144               	.LVL5:
 145               	/* prologue: function */
 146               	/* frame size = 0 */
 147               	.LBB93:
 148               	.LBB94:
 149               	.LBB95:
 150               	.LM20:
 151               	/* #APP */
 152               	 ;  50 "c:/winavr-20080610/lib/gcc/../../avr/include/util/atomic.h" 1
 153 002e F894      		cli
 154               	 ;  0 "" 2
 155               	/* #NOAPP */
 156               	.LBE95:
 157               	.LBE94:
 158               	.LM21:
 159 0030 9093 8B00 		sts (138)+1,r25
 160 0034 8093 8A00 		sts 138,r24
 161               	.LBB96:
 162               	.LBB97:
 163               	.LM22:
 164               	/* #APP */
 165               	 ;  56 "c:/winavr-20080610/lib/gcc/../../avr/include/util/atomic.h" 1
 166 0038 7894      		sei
 167               	 ;  0 "" 2
 168               	.LM23:
 169               	/* epilogue start */
 170               	/* #NOAPP */
 171               	.LBE97:
 172               	.LBE96:
 173               	.LBE93:
 174               	.LM24:
 175 003a 0895      		ret
 176               	.LFE11:
 178               	.global	lf_turn_left_inc
 180               	lf_turn_left_inc:
 181               	.LFB14:
 182               	.LM25:
 183               	.LVL6:
 184               	/* prologue: function */
 185               	/* frame size = 0 */
 186               	.LBB98:
 187               	.LBB99:
 188               	.LBB100:
 189               	.LBB101:
 190               	.LBB102:
 191               	.LM26:
 192               	/* #APP */
 193               	 ;  50 "c:/winavr-20080610/lib/gcc/../../avr/include/util/atomic.h" 1
 194 003c F894      		cli
 195               	 ;  0 "" 2
 196               	/* #NOAPP */
 197               	.LBE102:
 198               	.LBE101:
 199               	.LM27:
 200 003e 2091 8800 		lds r18,136
 201 0042 3091 8900 		lds r19,(136)+1
 202               	.LVL7:
 203               	.LBB103:
 204               	.LBB104:
 205               	.LM28:
 206               	/* #APP */
 207               	 ;  56 "c:/winavr-20080610/lib/gcc/../../avr/include/util/atomic.h" 1
 208 0046 7894      		sei
 209               	 ;  0 "" 2
 210               	.LM29:
 211               	/* #NOAPP */
 212               	.LBE104:
 213               	.LBE103:
 214               	.LBE100:
 215               	.LBE99:
 216               	.LBE98:
 217               	.LBB105:
 218               	.LBB106:
 219               	.LBB107:
 220               	.LBB108:
 221               	.LBB109:
 222               	.LM30:
 223               	/* #APP */
 224               	 ;  50 "c:/winavr-20080610/lib/gcc/../../avr/include/util/atomic.h" 1
 225 0048 F894      		cli
 226               	 ;  0 "" 2
 227               	/* #NOAPP */
 228               	.LBE109:
 229               	.LBE108:
 230               	.LM31:
 231 004a 4091 8A00 		lds r20,138
 232 004e 5091 8B00 		lds r21,(138)+1
 233               	.LVL8:
 234               	.LBB110:
 235               	.LBB111:
 236               	.LM32:
 237               	/* #APP */
 238               	 ;  56 "c:/winavr-20080610/lib/gcc/../../avr/include/util/atomic.h" 1
 239 0052 7894      		sei
 240               	 ;  0 "" 2
 241               	.LM33:
 242               	/* #NOAPP */
 243               	.LBE111:
 244               	.LBE110:
 245               	.LBE107:
 246               	.LBE106:
 247               	.LBE105:
 248               	.LM34:
 249 0054 280F      		add r18,r24
 250 0056 391F      		adc r19,r25
 251               	.LBB112:
 252               	.LBB113:
 253               	.LBB114:
 254               	.LBB115:
 255               	.LBB116:
 256               	.LM35:
 257               	/* #APP */
 258               	 ;  50 "c:/winavr-20080610/lib/gcc/../../avr/include/util/atomic.h" 1
 259 0058 F894      		cli
 260               	 ;  0 "" 2
 261               	/* #NOAPP */
 262               	.LBE116:
 263               	.LBE115:
 264               	.LM36:
 265 005a 3093 8900 		sts (136)+1,r19
 266 005e 2093 8800 		sts 136,r18
 267               	.LBB117:
 268               	.LBB118:
 269               	.LM37:
 270               	/* #APP */
 271               	 ;  56 "c:/winavr-20080610/lib/gcc/../../avr/include/util/atomic.h" 1
 272 0062 7894      		sei
 273               	 ;  0 "" 2
 274               	.LM38:
 275               	/* epilogue start */
 276               	/* #NOAPP */
 277               	.LBE118:
 278               	.LBE117:
 279               	.LBE114:
 280               	.LBE113:
 281               	.LBE112:
 282               	.LM39:
 283 0064 0895      		ret
 284               	.LFE14:
 286               	.global	lf_turn_right_inc
 288               	lf_turn_right_inc:
 289               	.LFB15:
 290               	.LM40:
 291               	.LVL9:
 292               	/* prologue: function */
 293               	/* frame size = 0 */
 294               	.LBB119:
 295               	.LBB120:
 296               	.LBB121:
 297               	.LBB122:
 298               	.LBB123:
 299               	.LM41:
 300               	/* #APP */
 301               	 ;  50 "c:/winavr-20080610/lib/gcc/../../avr/include/util/atomic.h" 1
 302 0066 F894      		cli
 303               	 ;  0 "" 2
 304               	/* #NOAPP */
 305               	.LBE123:
 306               	.LBE122:
 307               	.LM42:
 308 0068 2091 8800 		lds r18,136
 309 006c 3091 8900 		lds r19,(136)+1
 310               	.LVL10:
 311               	.LBB124:
 312               	.LBB125:
 313               	.LM43:
 314               	/* #APP */
 315               	 ;  56 "c:/winavr-20080610/lib/gcc/../../avr/include/util/atomic.h" 1
 316 0070 7894      		sei
 317               	 ;  0 "" 2
 318               	.LM44:
 319               	/* #NOAPP */
 320               	.LBE125:
 321               	.LBE124:
 322               	.LBE121:
 323               	.LBE120:
 324               	.LBE119:
 325               	.LBB126:
 326               	.LBB127:
 327               	.LBB128:
 328               	.LBB129:
 329               	.LBB130:
 330               	.LM45:
 331               	/* #APP */
 332               	 ;  50 "c:/winavr-20080610/lib/gcc/../../avr/include/util/atomic.h" 1
 333 0072 F894      		cli
 334               	 ;  0 "" 2
 335               	/* #NOAPP */
 336               	.LBE130:
 337               	.LBE129:
 338               	.LM46:
 339 0074 2091 8A00 		lds r18,138
 340 0078 3091 8B00 		lds r19,(138)+1
 341               	.LVL11:
 342               	.LBB131:
 343               	.LBB132:
 344               	.LM47:
 345               	/* #APP */
 346               	 ;  56 "c:/winavr-20080610/lib/gcc/../../avr/include/util/atomic.h" 1
 347 007c 7894      		sei
 348               	 ;  0 "" 2
 349               	.LM48:
 350               	/* #NOAPP */
 351               	.LBE132:
 352               	.LBE131:
 353               	.LBE128:
 354               	.LBE127:
 355               	.LBE126:
 356               	.LM49:
 357 007e 280F      		add r18,r24
 358 0080 391F      		adc r19,r25
 359               	.LBB133:
 360               	.LBB134:
 361               	.LBB135:
 362               	.LBB136:
 363               	.LBB137:
 364               	.LM50:
 365               	/* #APP */
 366               	 ;  50 "c:/winavr-20080610/lib/gcc/../../avr/include/util/atomic.h" 1
 367 0082 F894      		cli
 368               	 ;  0 "" 2
 369               	/* #NOAPP */
 370               	.LBE137:
 371               	.LBE136:
 372               	.LM51:
 373 0084 3093 8B00 		sts (138)+1,r19
 374 0088 2093 8A00 		sts 138,r18
 375               	.LBB138:
 376               	.LBB139:
 377               	.LM52:
 378               	/* #APP */
 379               	 ;  56 "c:/winavr-20080610/lib/gcc/../../avr/include/util/atomic.h" 1
 380 008c 7894      		sei
 381               	 ;  0 "" 2
 382               	.LM53:
 383               	/* epilogue start */
 384               	/* #NOAPP */
 385               	.LBE139:
 386               	.LBE138:
 387               	.LBE135:
 388               	.LBE134:
 389               	.LBE133:
 390               	.LM54:
 391 008e 0895      		ret
 392               	.LFE15:
 394               	.global	lf_full_speed
 396               	lf_full_speed:
 397               	.LFB16:
 398               	.LM55:
 399               	/* prologue: function */
 400               	/* frame size = 0 */
 401               	.LBB140:
 402               	.LBB141:
 403               	.LBB142:
 404               	.LBB143:
 405               	.LBB144:
 406               	.LM56:
 407               	/* #APP */
 408               	 ;  50 "c:/winavr-20080610/lib/gcc/../../avr/include/util/atomic.h" 1
 409 0090 F894      		cli
 410               	 ;  0 "" 2
 411               	/* #NOAPP */
 412               	.LBE144:
 413               	.LBE143:
 414               	.LM57:
 415 0092 8FEF      		ldi r24,lo8(-1)
 416 0094 9FEF      		ldi r25,hi8(-1)
 417 0096 9093 8900 		sts (136)+1,r25
 418 009a 8093 8800 		sts 136,r24
 419               	.LBB145:
 420               	.LBB146:
 421               	.LM58:
 422               	/* #APP */
 423               	 ;  56 "c:/winavr-20080610/lib/gcc/../../avr/include/util/atomic.h" 1
 424 009e 7894      		sei
 425               	 ;  0 "" 2
 426               	.LM59:
 427               	/* #NOAPP */
 428               	.LBE146:
 429               	.LBE145:
 430               	.LBE142:
 431               	.LBE141:
 432               	.LBE140:
 433               	.LBB147:
 434               	.LBB148:
 435               	.LBB149:
 436               	.LBB150:
 437               	.LBB151:
 438               	.LM60:
 439               	/* #APP */
 440               	 ;  50 "c:/winavr-20080610/lib/gcc/../../avr/include/util/atomic.h" 1
 441 00a0 F894      		cli
 442               	 ;  0 "" 2
 443               	/* #NOAPP */
 444               	.LBE151:
 445               	.LBE150:
 446               	.LM61:
 447 00a2 8FEF      		ldi r24,lo8(-1)
 448 00a4 9FEF      		ldi r25,hi8(-1)
 449 00a6 9093 8B00 		sts (138)+1,r25
 450 00aa 8093 8A00 		sts 138,r24
 451               	.LBB152:
 452               	.LBB153:
 453               	.LM62:
 454               	/* #APP */
 455               	 ;  56 "c:/winavr-20080610/lib/gcc/../../avr/include/util/atomic.h" 1
 456 00ae 7894      		sei
 457               	 ;  0 "" 2
 458               	.LM63:
 459               	/* epilogue start */
 460               	/* #NOAPP */
 461               	.LBE153:
 462               	.LBE152:
 463               	.LBE149:
 464               	.LBE148:
 465               	.LBE147:
 466               	.LM64:
 467 00b0 0895      		ret
 468               	.LFE16:
 470               		.data
 471               	.LC0:
 472 0000 6D6F 746F 		.string	"motor R mode: %d\n"
 472      7220 5220 
 472      6D6F 6465 
 472      3A20 2564 
 472      0A00 
 473               		.text
 474               	.global	motor_mode_R
 476               	motor_mode_R:
 477               	.LFB13:
 478               	.LM65:
 479               	.LVL12:
 480               	/* prologue: function */
 481               	/* frame size = 0 */
 482 00b2 982F      		mov r25,r24
 483               	.LM66:
 484 00b4 8230      		cpi r24,lo8(2)
 485 00b6 01F4      		brne .L16
 486               	.LM67:
 487 00b8 5D98      		cbi 43-32,5
 488               	.LM68:
 489 00ba 5F9A      		sbi 43-32,7
 490 00bc 00C0      		rjmp .L21
 491               	.L16:
 492               	.LM69:
 493 00be 8130      		cpi r24,lo8(1)
 494 00c0 01F4      		brne .L18
 495               	.LM70:
 496 00c2 5D9A      		sbi 43-32,5
 497               	.LM71:
 498 00c4 5F98      		cbi 43-32,7
 499 00c6 00C0      		rjmp .L21
 500               	.L18:
 501               	.LM72:
 502 00c8 8330      		cpi r24,lo8(3)
 503 00ca 01F4      		brne .L19
 504               	.LM73:
 505 00cc 8BB1      		in r24,43-32
 506               	.LVL13:
 507 00ce 8F75      		andi r24,lo8(95)
 508 00d0 00C0      		rjmp .L22
 509               	.LVL14:
 510               	.L19:
 511               	.LM74:
 512 00d2 8430      		cpi r24,lo8(4)
 513 00d4 01F4      		brne .L17
 514               	.LM75:
 515 00d6 8BB1      		in r24,43-32
 516               	.LVL15:
 517 00d8 806A      		ori r24,lo8(-96)
 518               	.L22:
 519 00da 8BB9      		out 43-32,r24
 520               	.LVL16:
 521               	.L21:
 522               	.LM76:
 523 00dc 9093 0000 		sts c_mode.1481,r25
 524               	.L17:
 525               	.LM77:
 526 00e0 8091 0000 		lds r24,c_mode.1481
 527 00e4 90E0      		ldi r25,lo8(0)
 528               	.LVL17:
 529 00e6 9F93      		push r25
 530 00e8 8F93      		push r24
 531 00ea 80E0      		ldi r24,lo8(.LC0)
 532 00ec 90E0      		ldi r25,hi8(.LC0)
 533 00ee 9F93      		push r25
 534 00f0 8F93      		push r24
 535 00f2 0E94 0000 		call printf
 536 00f6 0F90      		pop __tmp_reg__
 537 00f8 0F90      		pop __tmp_reg__
 538 00fa 0F90      		pop __tmp_reg__
 539 00fc 0F90      		pop __tmp_reg__
 540               	.LM78:
 541 00fe 8091 0000 		lds r24,c_mode.1481
 542               	/* epilogue start */
 543 0102 0895      		ret
 544               	.LFE13:
 546               		.data
 547               	.LC1:
 548 0012 6D6F 746F 		.string	"motor L mode: %d\n"
 548      7220 4C20 
 548      6D6F 6465 
 548      3A20 2564 
 548      0A00 
 549               		.text
 550               	.global	motor_mode_L
 552               	motor_mode_L:
 553               	.LFB12:
 554               	.LM79:
 555               	.LVL18:
 556               	/* prologue: function */
 557               	/* frame size = 0 */
 558 0104 982F      		mov r25,r24
 559               	.LM80:
 560 0106 8230      		cpi r24,lo8(2)
 561 0108 01F4      		brne .L24
 562               	.LM81:
 563 010a 5998      		cbi 43-32,1
 564               	.LM82:
 565 010c 5B9A      		sbi 43-32,3
 566 010e 00C0      		rjmp .L29
 567               	.L24:
 568               	.LM83:
 569 0110 8130      		cpi r24,lo8(1)
 570 0112 01F4      		brne .L26
 571               	.LM84:
 572 0114 599A      		sbi 43-32,1
 573               	.LM85:
 574 0116 5B98      		cbi 43-32,3
 575 0118 00C0      		rjmp .L29
 576               	.L26:
 577               	.LM86:
 578 011a 8330      		cpi r24,lo8(3)
 579 011c 01F4      		brne .L27
 580               	.LM87:
 581 011e 8BB1      		in r24,43-32
 582               	.LVL19:
 583 0120 857F      		andi r24,lo8(-11)
 584 0122 00C0      		rjmp .L30
 585               	.LVL20:
 586               	.L27:
 587               	.LM88:
 588 0124 8430      		cpi r24,lo8(4)
 589 0126 01F4      		brne .L25
 590               	.LM89:
 591 0128 8BB1      		in r24,43-32
 592               	.LVL21:
 593 012a 8A60      		ori r24,lo8(10)
 594               	.L30:
 595 012c 8BB9      		out 43-32,r24
 596               	.LVL22:
 597               	.L29:
 598               	.LM90:
 599 012e 9093 0000 		sts c_mode.1461,r25
 600               	.L25:
 601               	.LM91:
 602 0132 8091 0000 		lds r24,c_mode.1461
 603 0136 90E0      		ldi r25,lo8(0)
 604               	.LVL23:
 605 0138 9F93      		push r25
 606 013a 8F93      		push r24
 607 013c 80E0      		ldi r24,lo8(.LC1)
 608 013e 90E0      		ldi r25,hi8(.LC1)
 609 0140 9F93      		push r25
 610 0142 8F93      		push r24
 611 0144 0E94 0000 		call printf
 612 0148 0F90      		pop __tmp_reg__
 613 014a 0F90      		pop __tmp_reg__
 614 014c 0F90      		pop __tmp_reg__
 615 014e 0F90      		pop __tmp_reg__
 616               	.LM92:
 617 0150 8091 0000 		lds r24,c_mode.1461
 618               	/* epilogue start */
 619 0154 0895      		ret
 620               	.LFE12:
 622               		.lcomm c_mode.1481,1
 623               		.lcomm c_mode.1461,1
 712               	.Letext0:
DEFINED SYMBOLS
                            *ABS*:00000000 motor.c
C:\Users\Unknown\AppData\Local\Temp/cctqfHB7.s:2      *ABS*:0000003f __SREG__
C:\Users\Unknown\AppData\Local\Temp/cctqfHB7.s:3      *ABS*:0000003e __SP_H__
C:\Users\Unknown\AppData\Local\Temp/cctqfHB7.s:4      *ABS*:0000003d __SP_L__
C:\Users\Unknown\AppData\Local\Temp/cctqfHB7.s:5      *ABS*:00000034 __CCP__
C:\Users\Unknown\AppData\Local\Temp/cctqfHB7.s:6      *ABS*:00000000 __tmp_reg__
C:\Users\Unknown\AppData\Local\Temp/cctqfHB7.s:7      *ABS*:00000001 __zero_reg__
C:\Users\Unknown\AppData\Local\Temp/cctqfHB7.s:20     .text:00000000 get_motor_L
C:\Users\Unknown\AppData\Local\Temp/cctqfHB7.s:61     .text:00000010 get_motor_R
C:\Users\Unknown\AppData\Local\Temp/cctqfHB7.s:102    .text:00000020 set_motor_L
C:\Users\Unknown\AppData\Local\Temp/cctqfHB7.s:141    .text:0000002e set_motor_R
C:\Users\Unknown\AppData\Local\Temp/cctqfHB7.s:180    .text:0000003c lf_turn_left_inc
C:\Users\Unknown\AppData\Local\Temp/cctqfHB7.s:288    .text:00000066 lf_turn_right_inc
C:\Users\Unknown\AppData\Local\Temp/cctqfHB7.s:396    .text:00000090 lf_full_speed
C:\Users\Unknown\AppData\Local\Temp/cctqfHB7.s:476    .text:000000b2 motor_mode_R
                             .bss:00000000 c_mode.1481
C:\Users\Unknown\AppData\Local\Temp/cctqfHB7.s:552    .text:00000104 motor_mode_L
C:\Users\Unknown\AppData\Local\Temp/cctqfHB7.s:622    .bss:00000001 c_mode.1461

UNDEFINED SYMBOLS
__do_copy_data
__do_clear_bss
printf
