   1               		.file	"usart.c"
   2               	__SREG__ = 0x3f
   3               	__SP_H__ = 0x3e
   4               	__SP_L__ = 0x3d
   5               	__CCP__  = 0x34
   6               	__tmp_reg__ = 0
   7               	__zero_reg__ = 1
   8               		.global __do_copy_data
   9               		.global __do_clear_bss
  17               	.Ltext0:
  19               	usart0_putchar_direct:
  20               	.LFB5:
  21               	.LM1:
  22               	.LVL0:
  23 0000 1F93      		push r17
  24               	/* prologue: function */
  25               	/* frame size = 0 */
  26 0002 182F      		mov r17,r24
  27               	.LM2:
  28 0004 8A30      		cpi r24,lo8(10)
  29 0006 01F4      		brne .L4
  30               	.LM3:
  31 0008 8DE0      		ldi r24,lo8(13)
  32               	.LVL1:
  33 000a 0E94 0000 		call usart0_putchar_direct
  34               	.LVL2:
  35               	.L4:
  36               	.LM4:
  37 000e 8091 C000 		lds r24,192
  38 0012 85FF      		sbrs r24,5
  39 0014 00C0      		rjmp .L4
  40               	.LM5:
  41 0016 1093 C600 		sts 198,r17
  42               	.LM6:
  43 001a 80E0      		ldi r24,lo8(0)
  44 001c 90E0      		ldi r25,hi8(0)
  45               	/* epilogue start */
  46 001e 1F91      		pop r17
  47               	.LVL3:
  48 0020 0895      		ret
  49               	.LFE5:
  51               	.global	usart0_init
  53               	usart0_init:
  54               	.LFB9:
  55               	.LM7:
  56               	/* prologue: function */
  57               	/* frame size = 0 */
  58               	.LM8:
  59 0022 E4E6      		ldi r30,lo8(100)
  60 0024 F0E0      		ldi r31,hi8(100)
  61 0026 8081      		ld r24,Z
  62 0028 8D7F      		andi r24,lo8(-3)
  63 002a 8083      		st Z,r24
  64               	.LM9:
  65 002c 80E0      		ldi r24,lo8(tx_q)
  66 002e 90E0      		ldi r25,hi8(tx_q)
  67 0030 0E94 0000 		call q_init
  68               	.LM10:
  69 0034 89E1      		ldi r24,lo8(25)
  70 0036 90E0      		ldi r25,hi8(25)
  71 0038 9093 C500 		sts (196)+1,r25
  72 003c 8093 C400 		sts 196,r24
  73               	.LM11:
  74 0040 E0EC      		ldi r30,lo8(192)
  75 0042 F0E0      		ldi r31,hi8(192)
  76 0044 8081      		ld r24,Z
  77 0046 8D7F      		andi r24,lo8(-3)
  78 0048 8083      		st Z,r24
  79               	.LM12:
  80 004a 88E1      		ldi r24,lo8(24)
  81 004c 8093 C100 		sts 193,r24
  82               	.LM13:
  83 0050 86E0      		ldi r24,lo8(6)
  84 0052 8093 C200 		sts 194,r24
  85               	.LM14:
  86 0056 80E0      		ldi r24,lo8(usart0_stdio)
  87 0058 90E0      		ldi r25,hi8(usart0_stdio)
  88 005a 9093 0000 		sts (__iob)+1,r25
  89 005e 8093 0000 		sts __iob,r24
  90 0062 9093 0000 		sts (__iob+2)+1,r25
  91 0066 8093 0000 		sts __iob+2,r24
  92               	.LM15:
  93 006a 20E0      		ldi r18,lo8(usart0_stderr)
  94 006c 30E0      		ldi r19,hi8(usart0_stderr)
  95 006e 3093 0000 		sts (__iob+4)+1,r19
  96 0072 2093 0000 		sts __iob+4,r18
  97               	.LM16:
  98 0076 80E0      		ldi r24,lo8(__c.1649)
  99 0078 90E0      		ldi r25,hi8(__c.1649)
 100 007a 9F93      		push r25
 101 007c 8F93      		push r24
 102 007e 3F93      		push r19
 103 0080 2F93      		push r18
 104 0082 0E94 0000 		call fprintf_P
 105 0086 0F90      		pop __tmp_reg__
 106 0088 0F90      		pop __tmp_reg__
 107 008a 0F90      		pop __tmp_reg__
 108 008c 0F90      		pop __tmp_reg__
 109               	/* epilogue start */
 110               	.LM17:
 111 008e 0895      		ret
 112               	.LFE9:
 114               	.global	usart_init
 116               	usart_init:
 117               	.LFB10:
 118               	.LM18:
 119               	/* prologue: function */
 120               	/* frame size = 0 */
 121               	.LM19:
 122 0090 0E94 0000 		call usart0_init
 123               	/* epilogue start */
 124               	.LM20:
 125 0094 0895      		ret
 126               	.LFE10:
 129               	usart0_putchar:
 130               	.LFB7:
 131               	.LM21:
 132               	.LVL4:
 133 0096 1F93      		push r17
 134               	/* prologue: function */
 135               	/* frame size = 0 */
 136 0098 182F      		mov r17,r24
 137               	.LM22:
 138 009a 8A30      		cpi r24,lo8(10)
 139 009c 01F4      		brne .L11
 140               	.LM23:
 141 009e 8DE0      		ldi r24,lo8(13)
 142               	.LVL5:
 143 00a0 0E94 0000 		call usart0_putchar
 144               	.LVL6:
 145               	.L11:
 146               	.LM24:
 147 00a4 80E0      		ldi r24,lo8(tx_q)
 148 00a6 90E0      		ldi r25,hi8(tx_q)
 149 00a8 0E94 0000 		call q_full
 150               	.LVL7:
 151 00ac 8823      		tst r24
 152 00ae 01F0      		breq .L14
 153               	.LM25:
 154 00b0 80E0      		ldi r24,lo8(__c.1629)
 155 00b2 90E0      		ldi r25,hi8(__c.1629)
 156 00b4 9F93      		push r25
 157 00b6 8F93      		push r24
 158 00b8 0E94 0000 		call printf_P
 159               	.LBB11:
 160               	.LBB12:
 161               	.LM26:
 162 00bc 8091 C100 		lds r24,193
 163 00c0 8062      		ori r24,lo8(32)
 164 00c2 8093 C100 		sts 193,r24
 165               	.LBE12:
 166               	.LBE11:
 167               	.LM27:
 168               	/* #APP */
 169               	 ;  135 "usart.c" 1
 170 00c6 7894      		sei
 171               	 ;  0 "" 2
 172               	/* #NOAPP */
 173 00c8 0F90      		pop __tmp_reg__
 174 00ca 0F90      		pop __tmp_reg__
 175               	.L14:
 176               	.LM28:
 177 00cc 80E0      		ldi r24,lo8(tx_q)
 178 00ce 90E0      		ldi r25,hi8(tx_q)
 179 00d0 0E94 0000 		call q_full
 180 00d4 8823      		tst r24
 181 00d6 01F4      		brne .L14
 182               	.LBB13:
 183               	.LBB14:
 184               	.LM29:
 185 00d8 8091 C100 		lds r24,193
 186 00dc 8F7D      		andi r24,lo8(-33)
 187 00de 8093 C100 		sts 193,r24
 188               	.LBE14:
 189               	.LBE13:
 190               	.LM30:
 191 00e2 612F      		mov r22,r17
 192 00e4 80E0      		ldi r24,lo8(tx_q)
 193 00e6 90E0      		ldi r25,hi8(tx_q)
 194 00e8 0E94 0000 		call q_push
 195               	.LBB15:
 196               	.LBB16:
 197               	.LM31:
 198 00ec 8091 C100 		lds r24,193
 199 00f0 8062      		ori r24,lo8(32)
 200 00f2 8093 C100 		sts 193,r24
 201               	.LBE16:
 202               	.LBE15:
 203               	.LM32:
 204 00f6 80E0      		ldi r24,lo8(0)
 205 00f8 90E0      		ldi r25,hi8(0)
 206               	/* epilogue start */
 207 00fa 1F91      		pop r17
 208               	.LVL8:
 209 00fc 0895      		ret
 210               	.LFE7:
 212               	.global	usart0_getchar
 214               	usart0_getchar:
 215               	.LFB6:
 216               	.LM33:
 217               	.LVL9:
 218 00fe EF92      		push r14
 219 0100 FF92      		push r15
 220 0102 0F93      		push r16
 221 0104 1F93      		push r17
 222 0106 CF93      		push r28
 223 0108 DF93      		push r29
 224               	/* prologue: function */
 225               	/* frame size = 0 */
 226 010a 7C01      		movw r14,r24
 227               	.LM34:
 228 010c 8091 0000 		lds r24,rxp.1582
 229 0110 9091 0000 		lds r25,(rxp.1582)+1
 230               	.LVL10:
 231 0114 892B      		or r24,r25
 232 0116 01F0      		breq .+2
 233 0118 00C0      		rjmp .L17
 234 011a 00E0      		ldi r16,lo8(b.1581)
 235 011c 10E0      		ldi r17,hi8(b.1581)
 236               	.LVL11:
 237               	.L43:
 238               	.LM35:
 239 011e 8091 C000 		lds r24,192
 240 0122 87FF      		sbrs r24,7
 241 0124 00C0      		rjmp .L43
 242               	.LM36:
 243 0126 8091 C000 		lds r24,192
 244 012a 84FF      		sbrs r24,4
 245 012c 00C0      		rjmp .L19
 246 012e 2EEF      		ldi r18,lo8(-2)
 247 0130 3FEF      		ldi r19,hi8(-2)
 248 0132 00C0      		rjmp .L20
 249               	.L19:
 250               	.LM37:
 251 0134 8091 C000 		lds r24,192
 252 0138 83FD      		sbrc r24,3
 253 013a 00C0      		rjmp .L21
 254               	.LM38:
 255 013c 9091 C600 		lds r25,198
 256               	.LM39:
 257 0140 9D30      		cpi r25,lo8(13)
 258 0142 01F0      		breq .L22
 259               	.LM40:
 260 0144 9A30      		cpi r25,lo8(10)
 261 0146 01F4      		brne .L23
 262               	.L22:
 263               	.LM41:
 264 0148 8AE0      		ldi r24,lo8(10)
 265 014a F801      		movw r30,r16
 266 014c 8083      		st Z,r24
 267               	.LM42:
 268 014e B701      		movw r22,r14
 269 0150 0E94 0000 		call usart0_putchar
 270               	.LVL12:
 271               	.LM43:
 272 0154 80E0      		ldi r24,lo8(b.1581)
 273 0156 90E0      		ldi r25,hi8(b.1581)
 274 0158 9093 0000 		sts (rxp.1582)+1,r25
 275 015c 8093 0000 		sts rxp.1582,r24
 276 0160 00C0      		rjmp .L17
 277               	.LVL13:
 278               	.L23:
 279               	.LM44:
 280 0162 9930      		cpi r25,lo8(9)
 281 0164 01F4      		brne .L24
 282 0166 90E2      		ldi r25,lo8(32)
 283               	.L24:
 284               	.LM45:
 285 0168 892F      		mov r24,r25
 286 016a 8052      		subi r24,lo8(-(-32))
 287 016c 8F35      		cpi r24,lo8(95)
 288 016e 00F0      		brlo .L25
 289 0170 903A      		cpi r25,lo8(-96)
 290 0172 00F0      		brlo .L26
 291               	.L25:
 292               	.LM46:
 293 0174 F0E0      		ldi r31,hi8(b.1581+127)
 294 0176 0030      		cpi r16,lo8(b.1581+127)
 295 0178 1F07      		cpc r17,r31
 296 017a 01F4      		brne .L27
 297               	.LM47:
 298 017c B701      		movw r22,r14
 299 017e 87E0      		ldi r24,lo8(7)
 300 0180 00C0      		rjmp .L44
 301               	.LVL14:
 302               	.L27:
 303               	.LM48:
 304 0182 F801      		movw r30,r16
 305 0184 9193      		st Z+,r25
 306 0186 8F01      		movw r16,r30
 307               	.LM49:
 308 0188 B701      		movw r22,r14
 309 018a 892F      		mov r24,r25
 310               	.LVL15:
 311               	.L44:
 312 018c 0E94 0000 		call usart0_putchar
 313               	.LVL16:
 314 0190 00C0      		rjmp .L43
 315               	.LVL17:
 316               	.L26:
 317               	.LM50:
 318 0192 9231      		cpi r25,lo8(18)
 319 0194 01F0      		breq .L29
 320 0196 9331      		cpi r25,lo8(19)
 321 0198 00F4      		brsh .L32
 322 019a 9330      		cpi r25,lo8(3)
 323 019c 01F4      		brne .+2
 324 019e 00C0      		rjmp .L21
 325 01a0 9830      		cpi r25,lo8(8)
 326 01a2 01F0      		breq .+2
 327 01a4 00C0      		rjmp .L43
 328 01a6 00C0      		rjmp .L28
 329               	.L32:
 330 01a8 9731      		cpi r25,lo8(23)
 331 01aa 01F4      		brne .+2
 332 01ac 00C0      		rjmp .L41
 333 01ae 9F37      		cpi r25,lo8(127)
 334 01b0 01F0      		breq .L28
 335 01b2 9531      		cpi r25,lo8(21)
 336 01b4 01F0      		breq .+2
 337 01b6 00C0      		rjmp .L43
 338 01b8 00C0      		rjmp .L42
 339               	.L28:
 340               	.LM51:
 341 01ba F0E0      		ldi r31,hi8(b.1581)
 342 01bc 0030      		cpi r16,lo8(b.1581)
 343 01be 1F07      		cpc r17,r31
 344 01c0 01F0      		breq .+2
 345 01c2 00F4      		brsh .+2
 346 01c4 00C0      		rjmp .L43
 347               	.LM52:
 348 01c6 B701      		movw r22,r14
 349 01c8 88E0      		ldi r24,lo8(8)
 350 01ca 0E94 0000 		call usart0_putchar
 351               	.LVL18:
 352               	.LM53:
 353 01ce B701      		movw r22,r14
 354 01d0 80E2      		ldi r24,lo8(32)
 355 01d2 0E94 0000 		call usart0_putchar
 356               	.LM54:
 357 01d6 B701      		movw r22,r14
 358 01d8 88E0      		ldi r24,lo8(8)
 359 01da 0E94 0000 		call usart0_putchar
 360               	.LM55:
 361 01de 0150      		subi r16,lo8(-(-1))
 362 01e0 1040      		sbci r17,hi8(-(-1))
 363 01e2 00C0      		rjmp .L43
 364               	.LVL19:
 365               	.L29:
 366               	.LM56:
 367 01e4 B701      		movw r22,r14
 368 01e6 8DE0      		ldi r24,lo8(13)
 369 01e8 0E94 0000 		call usart0_putchar
 370               	.LVL20:
 371 01ec C0E0      		ldi r28,lo8(b.1581)
 372 01ee D0E0      		ldi r29,hi8(b.1581)
 373 01f0 00C0      		rjmp .L33
 374               	.L34:
 375               	.LM57:
 376 01f2 B701      		movw r22,r14
 377 01f4 8991      		ld r24,Y+
 378 01f6 0E94 0000 		call usart0_putchar
 379               	.L33:
 380               	.LM58:
 381 01fa C017      		cp r28,r16
 382 01fc D107      		cpc r29,r17
 383 01fe 00F0      		brlo .L34
 384 0200 00C0      		rjmp .L43
 385               	.LVL21:
 386               	.L35:
 387               	.LM59:
 388 0202 B701      		movw r22,r14
 389 0204 88E0      		ldi r24,lo8(8)
 390 0206 0E94 0000 		call usart0_putchar
 391               	.LVL22:
 392               	.LM60:
 393 020a B701      		movw r22,r14
 394 020c 80E2      		ldi r24,lo8(32)
 395 020e 0E94 0000 		call usart0_putchar
 396               	.LM61:
 397 0212 B701      		movw r22,r14
 398 0214 88E0      		ldi r24,lo8(8)
 399 0216 0E94 0000 		call usart0_putchar
 400               	.LM62:
 401 021a 0150      		subi r16,lo8(-(-1))
 402 021c 1040      		sbci r17,hi8(-(-1))
 403               	.LVL23:
 404               	.L42:
 405               	.LM63:
 406 021e 80E0      		ldi r24,hi8(b.1581)
 407 0220 0030      		cpi r16,lo8(b.1581)
 408 0222 1807      		cpc r17,r24
 409 0224 01F0      		breq .+2
 410 0226 00F4      		brsh .L35
 411 0228 00C0      		rjmp .L43
 412               	.LVL24:
 413               	.L36:
 414               	.LM64:
 415 022a B701      		movw r22,r14
 416 022c 88E0      		ldi r24,lo8(8)
 417 022e 0E94 0000 		call usart0_putchar
 418               	.LVL25:
 419               	.LM65:
 420 0232 B701      		movw r22,r14
 421 0234 80E2      		ldi r24,lo8(32)
 422 0236 0E94 0000 		call usart0_putchar
 423               	.LM66:
 424 023a B701      		movw r22,r14
 425 023c 88E0      		ldi r24,lo8(8)
 426 023e 0E94 0000 		call usart0_putchar
 427 0242 8E01      		movw r16,r28
 428               	.LVL26:
 429               	.L41:
 430               	.LM67:
 431 0244 E0E0      		ldi r30,hi8(b.1581)
 432 0246 0030      		cpi r16,lo8(b.1581)
 433 0248 1E07      		cpc r17,r30
 434 024a 01F0      		breq .+2
 435 024c 00F4      		brsh .+2
 436 024e 00C0      		rjmp .L43
 437 0250 E801      		movw r28,r16
 438               	.LVL27:
 439 0252 8A91      		ld r24,-Y
 440 0254 8032      		cpi r24,lo8(32)
 441 0256 01F4      		brne .L36
 442               	.LVL28:
 443 0258 00C0      		rjmp .L43
 444               	.LVL29:
 445               	.L17:
 446               	.LM68:
 447 025a E091 0000 		lds r30,rxp.1582
 448 025e F091 0000 		lds r31,(rxp.1582)+1
 449 0262 8191      		ld r24,Z+
 450               	.LVL30:
 451 0264 F093 0000 		sts (rxp.1582)+1,r31
 452 0268 E093 0000 		sts rxp.1582,r30
 453               	.LM69:
 454 026c 8A30      		cpi r24,lo8(10)
 455 026e 01F4      		brne .L37
 456 0270 1092 0000 		sts (rxp.1582)+1,__zero_reg__
 457 0274 1092 0000 		sts rxp.1582,__zero_reg__
 458               	.L37:
 459               	.LM70:
 460 0278 282F      		mov r18,r24
 461 027a 30E0      		ldi r19,lo8(0)
 462 027c 00C0      		rjmp .L20
 463               	.LVL31:
 464               	.L21:
 465 027e 2FEF      		ldi r18,lo8(-1)
 466 0280 3FEF      		ldi r19,hi8(-1)
 467               	.LVL32:
 468               	.L20:
 469               	.LM71:
 470 0282 C901      		movw r24,r18
 471               	/* epilogue start */
 472 0284 DF91      		pop r29
 473 0286 CF91      		pop r28
 474               	.LVL33:
 475 0288 1F91      		pop r17
 476 028a 0F91      		pop r16
 477               	.LVL34:
 478 028c FF90      		pop r15
 479 028e EF90      		pop r14
 480               	.LVL35:
 481 0290 0895      		ret
 482               	.LFE6:
 484               	.global	__vector_14
 486               	__vector_14:
 487               	.LFB8:
 488               	.LM72:
 489 0292 1F92      		push __zero_reg__
 490 0294 0F92      		push r0
 491 0296 0FB6      		in r0,__SREG__
 492 0298 0F92      		push r0
 493 029a 1124      		clr __zero_reg__
 494 029c 2F93      		push r18
 495 029e 3F93      		push r19
 496 02a0 4F93      		push r20
 497 02a2 5F93      		push r21
 498 02a4 6F93      		push r22
 499 02a6 7F93      		push r23
 500 02a8 8F93      		push r24
 501 02aa 9F93      		push r25
 502 02ac AF93      		push r26
 503 02ae BF93      		push r27
 504 02b0 EF93      		push r30
 505 02b2 FF93      		push r31
 506               	/* prologue: Signal */
 507               	/* frame size = 0 */
 508               	.LM73:
 509 02b4 8091 0000 		lds r24,tx_q+34
 510 02b8 8823      		tst r24
 511 02ba 01F0      		breq .L46
 512               	.LM74:
 513 02bc 80E0      		ldi r24,lo8(tx_q)
 514 02be 90E0      		ldi r25,hi8(tx_q)
 515 02c0 0E94 0000 		call q_pop
 516 02c4 8093 C600 		sts 198,r24
 517               	.L46:
 518               	.LM75:
 519 02c8 8091 0000 		lds r24,tx_q+34
 520 02cc 8823      		tst r24
 521 02ce 01F4      		brne .L48
 522               	.LBB17:
 523               	.LBB18:
 524               	.LM76:
 525 02d0 8091 C100 		lds r24,193
 526 02d4 8F7D      		andi r24,lo8(-33)
 527 02d6 8093 C100 		sts 193,r24
 528               	.L48:
 529               	/* epilogue start */
 530               	.LBE18:
 531               	.LBE17:
 532               	.LM77:
 533 02da FF91      		pop r31
 534 02dc EF91      		pop r30
 535 02de BF91      		pop r27
 536 02e0 AF91      		pop r26
 537 02e2 9F91      		pop r25
 538 02e4 8F91      		pop r24
 539 02e6 7F91      		pop r23
 540 02e8 6F91      		pop r22
 541 02ea 5F91      		pop r21
 542 02ec 4F91      		pop r20
 543 02ee 3F91      		pop r19
 544 02f0 2F91      		pop r18
 545 02f2 0F90      		pop r0
 546 02f4 0FBE      		out __SREG__,r0
 547 02f6 0F90      		pop r0
 548 02f8 1F90      		pop __zero_reg__
 549 02fa 1895      		reti
 550               	.LFE8:
 552               		.data
 555               	usart0_stdio:
 556 0000 0000 00   		.skip 3,0
 557 0003 03        		.byte	3
 558 0004 0000 0000 		.skip 4,0
 559 0008 0000      		.word	gs(usart0_putchar)
 560 000a 0000      		.word	gs(usart0_getchar)
 561 000c 0000      		.word	0
 564               	usart0_stderr:
 565 000e 0000 00   		.skip 3,0
 566 0011 02        		.byte	2
 567 0012 0000 0000 		.skip 4,0
 568 0016 0000      		.word	gs(usart0_putchar_direct)
 569 0018 0000      		.word	0
 570 001a 0000      		.word	0
 571               		.section	.progmem.data,"a",@progbits
 574               	__c.1649:
 575 0000 0A75 7361 		.string	"\nusart: init usart0\t[done]"
 575      7274 3A20 
 575      696E 6974 
 575      2075 7361 
 575      7274 3009 
 578               	__c.1629:
 579 001b 0A5B 7761 		.string	"\n[warn] Had to force on USART ittr\n"
 579      726E 5D20 
 579      4861 6420 
 579      746F 2066 
 579      6F72 6365 
 580               		.lcomm rxp.1582,2
 581               		.lcomm b.1581,128
 582               		.comm c_mode,1,1
 583               		.comm initial,1,1
 584               		.comm tx_q,35,1
 649               	.Letext0:
DEFINED SYMBOLS
                            *ABS*:00000000 usart.c
C:\Users\Unknown\AppData\Local\Temp/ccPArX6G.s:2      *ABS*:0000003f __SREG__
C:\Users\Unknown\AppData\Local\Temp/ccPArX6G.s:3      *ABS*:0000003e __SP_H__
C:\Users\Unknown\AppData\Local\Temp/ccPArX6G.s:4      *ABS*:0000003d __SP_L__
C:\Users\Unknown\AppData\Local\Temp/ccPArX6G.s:5      *ABS*:00000034 __CCP__
C:\Users\Unknown\AppData\Local\Temp/ccPArX6G.s:6      *ABS*:00000000 __tmp_reg__
C:\Users\Unknown\AppData\Local\Temp/ccPArX6G.s:7      *ABS*:00000001 __zero_reg__
C:\Users\Unknown\AppData\Local\Temp/ccPArX6G.s:19     .text:00000000 usart0_putchar_direct
C:\Users\Unknown\AppData\Local\Temp/ccPArX6G.s:53     .text:00000022 usart0_init
                            *COM*:00000023 tx_q
C:\Users\Unknown\AppData\Local\Temp/ccPArX6G.s:555    .data:00000000 usart0_stdio
C:\Users\Unknown\AppData\Local\Temp/ccPArX6G.s:564    .data:0000000e usart0_stderr
C:\Users\Unknown\AppData\Local\Temp/ccPArX6G.s:574    .progmem.data:00000000 __c.1649
C:\Users\Unknown\AppData\Local\Temp/ccPArX6G.s:116    .text:00000090 usart_init
C:\Users\Unknown\AppData\Local\Temp/ccPArX6G.s:129    .text:00000096 usart0_putchar
C:\Users\Unknown\AppData\Local\Temp/ccPArX6G.s:578    .progmem.data:0000001b __c.1629
C:\Users\Unknown\AppData\Local\Temp/ccPArX6G.s:214    .text:000000fe usart0_getchar
                             .bss:00000000 rxp.1582
C:\Users\Unknown\AppData\Local\Temp/ccPArX6G.s:580    .bss:00000002 b.1581
C:\Users\Unknown\AppData\Local\Temp/ccPArX6G.s:486    .text:00000292 __vector_14
                            *COM*:00000001 c_mode
                            *COM*:00000001 initial

UNDEFINED SYMBOLS
__do_copy_data
__do_clear_bss
q_init
__iob
fprintf_P
q_full
printf_P
q_push
q_pop
